TN:
SF:/opt/apps/gcc/4.7.1/include/c++/4.7.1/bits/basic_ios.h
FN:48,_ZSt13__check_facetISt5ctypeIcEERKT_PS3_
FNDA:0,_ZSt13__check_facetISt5ctypeIcEERKT_PS3_
FNF:1
FNH:0
DA:48,0
DA:50,0
DA:51,0
DA:52,0
LF:4
LH:0
end_of_record
SF:/opt/apps/gcc/4.7.1/include/c++/4.7.1/bits/basic_string.h
FN:269,_ZNSs12_Alloc_hiderD2Ev
FNDA:0,_ZNSs12_Alloc_hiderD2Ev
FNF:1
FNH:0
DA:269,0
LF:1
LH:0
end_of_record
SF:/opt/apps/gcc/4.7.1/include/c++/4.7.1/bits/char_traits.h
FN:260,_ZNSt11char_traitsIcE6lengthEPKc
FNDA:0,_ZNSt11char_traitsIcE6lengthEPKc
FNF:1
FNH:0
DA:260,0
DA:261,0
LF:2
LH:0
end_of_record
SF:/opt/apps/gcc/4.7.1/include/c++/4.7.1/bits/ios_base.h
FN:121,_ZStorSt13_Ios_OpenmodeS_
FN:159,_ZStorSt12_Ios_IostateS_
FNDA:0,_ZStorSt13_Ios_OpenmodeS_
FNDA:0,_ZStorSt12_Ios_IostateS_
FNF:2
FNH:0
DA:121,0
DA:122,0
DA:159,0
DA:160,0
LF:4
LH:0
end_of_record
SF:/opt/apps/gcc/4.7.1/include/c++/4.7.1/bits/locale_facets.h
FN:867,_ZNKSt5ctypeIcE5widenEc
FNDA:0,_ZNKSt5ctypeIcE5widenEc
FNF:1
FNH:0
DA:867,0
DA:869,0
DA:870,0
DA:871,0
DA:872,0
LF:5
LH:0
end_of_record
SF:/opt/apps/gcc/4.7.1/include/c++/4.7.1/ext/atomicity.h
FN:47,_ZN9__gnu_cxxL18__exchange_and_addEPVii
FN:64,_ZN9__gnu_cxxL25__exchange_and_add_singleEPii
FN:77,_ZN9__gnu_cxxL27__exchange_and_add_dispatchEPii
FNDA:0,_ZN9__gnu_cxxL18__exchange_and_addEPVii
FNDA:0,_ZN9__gnu_cxxL25__exchange_and_add_singleEPii
FNDA:0,_ZN9__gnu_cxxL27__exchange_and_add_dispatchEPii
FNF:3
FNH:0
DA:47,0
DA:48,0
DA:64,0
DA:66,0
DA:67,0
DA:68,0
DA:77,0
DA:80,0
DA:81,0
DA:83,0
LF:10
LH:0
end_of_record
SF:/opt/apps/gcc/4.7.1/include/c++/4.7.1/ext/new_allocator.h
FN:69,_ZN9__gnu_cxx13new_allocatorIcEC2Ev
FN:71,_ZN9__gnu_cxx13new_allocatorIcEC2ERKS1_
FN:76,_ZN9__gnu_cxx13new_allocatorIcED2Ev
FNDA:0,_ZN9__gnu_cxx13new_allocatorIcEC2Ev
FNDA:0,_ZN9__gnu_cxx13new_allocatorIcEC2ERKS1_
FNDA:0,_ZN9__gnu_cxx13new_allocatorIcED2Ev
FNF:3
FNH:0
DA:69,0
DA:71,0
DA:76,0
LF:3
LH:0
end_of_record
SF:/opt/apps/gcc/4.7.1/include/c++/4.7.1/iostream
DA:75,1
LF:1
LH:1
end_of_record
SF:/opt/apps/gcc/4.7.1/include/c++/4.7.1/x86_64-unknown-linux-gnu/bits/gthr-default.h
FN:259,_ZL18__gthread_active_pv
FNDA:0,_ZL18__gthread_active_pv
FNF:1
FNH:0
DA:259,0
DA:270,0
LF:2
LH:0
end_of_record
SF:/home1/04046/gry88/Tools/Final_Project/test/unit/test_setup.cpp
FN:10,_Z11test_interpv
FN:40,_Z15test_Grvy_Inputv
FN:63,_Z17test_Save_Resultsv
FN:98,_Z41__static_initialization_and_destruction_0ii
FN:98,_GLOBAL__sub_I__Z11test_interpv
FNDA:1,_Z11test_interpv
FNDA:1,_Z15test_Grvy_Inputv
FNDA:1,_Z17test_Save_Resultsv
FNDA:1,_GLOBAL__sub_I__Z11test_interpv
FNDA:1,_Z41__static_initialization_and_destruction_0ii
FNF:5
FNH:5
DA:10,1
DA:12,1
DA:13,1
DA:15,1
DA:16,1
DA:17,1
DA:18,1
DA:19,1
DA:20,1
DA:21,1
DA:22,1
DA:23,1
DA:24,1
DA:25,1
DA:26,1
DA:27,1
DA:29,1
DA:31,1
DA:33,0
DA:34,0
DA:36,1
DA:37,1
DA:40,1
DA:43,1
DA:44,1
DA:45,1
DA:47,1
DA:49,0
DA:50,0
DA:53,1
DA:55,0
DA:56,0
DA:59,1
DA:60,1
DA:63,1
DA:65,1
DA:67,1
DA:68,1
DA:69,1
DA:70,1
DA:73,1
DA:74,1
DA:75,1
DA:76,1
DA:77,4
DA:79,3
DA:80,3
DA:82,0
DA:83,0
DA:85,18
DA:87,15
DA:88,15
DA:90,0
DA:91,0
DA:95,1
DA:96,1
DA:97,1
DA:98,3
LF:58
LH:48
end_of_record
TN:
SF:/opt/apps/gcc/4.7.1/include/c++/4.7.1/bits/basic_ios.h
FN:48,_ZSt13__check_facetISt5ctypeIcEERKT_PS3_
FNDA:0,_ZSt13__check_facetISt5ctypeIcEERKT_PS3_
FNF:1
FNH:0
DA:48,0
DA:50,0
DA:51,0
DA:52,0
LF:4
LH:0
end_of_record
SF:/opt/apps/gcc/4.7.1/include/c++/4.7.1/bits/basic_string.h
FN:269,_ZNSs12_Alloc_hiderD2Ev
FN:2362,_ZStplIcSt11char_traitsIcESaIcEESbIT_T0_T1_ERKS6_S8_
FN:2399,_ZStplIcSt11char_traitsIcESaIcEESbIT_T0_T1_ERKS6_PKS3_
FNDA:0,_ZNSs12_Alloc_hiderD2Ev
FNDA:0,_ZStplIcSt11char_traitsIcESaIcEESbIT_T0_T1_ERKS6_S8_
FNDA:0,_ZStplIcSt11char_traitsIcESaIcEESbIT_T0_T1_ERKS6_PKS3_
FNF:3
FNH:0
DA:269,0
DA:2362,0
DA:2365,0
DA:2366,0
DA:2367,0
DA:2399,0
DA:2402,0
DA:2403,0
DA:2404,0
LF:9
LH:0
end_of_record
SF:/opt/apps/gcc/4.7.1/include/c++/4.7.1/bits/basic_string.tcc
FN:694,_ZStplIcSt11char_traitsIcESaIcEESbIT_T0_T1_EPKS3_RKS6_
FNDA:0,_ZStplIcSt11char_traitsIcESaIcEESbIT_T0_T1_EPKS3_RKS6_
FNF:1
FNH:0
DA:694,0
DA:700,0
DA:701,0
DA:702,0
DA:703,0
DA:704,0
DA:705,0
LF:7
LH:0
end_of_record
SF:/opt/apps/gcc/4.7.1/include/c++/4.7.1/bits/char_traits.h
FN:260,_ZNSt11char_traitsIcE6lengthEPKc
FNDA:0,_ZNSt11char_traitsIcE6lengthEPKc
FNF:1
FNH:0
DA:260,0
DA:261,0
LF:2
LH:0
end_of_record
SF:/opt/apps/gcc/4.7.1/include/c++/4.7.1/bits/ios_base.h
FN:159,_ZStorSt12_Ios_IostateS_
FNDA:0,_ZStorSt12_Ios_IostateS_
FNF:1
FNH:0
DA:159,0
DA:160,0
LF:2
LH:0
end_of_record
SF:/opt/apps/gcc/4.7.1/include/c++/4.7.1/bits/locale_facets.h
FN:867,_ZNKSt5ctypeIcE5widenEc
FNDA:0,_ZNKSt5ctypeIcE5widenEc
FNF:1
FNH:0
DA:867,0
DA:869,0
DA:870,0
DA:871,0
DA:872,0
LF:5
LH:0
end_of_record
SF:/opt/apps/gcc/4.7.1/include/c++/4.7.1/ext/atomicity.h
FN:47,_ZN9__gnu_cxxL18__exchange_and_addEPVii
FN:64,_ZN9__gnu_cxxL25__exchange_and_add_singleEPii
FN:77,_ZN9__gnu_cxxL27__exchange_and_add_dispatchEPii
FNDA:0,_ZN9__gnu_cxxL18__exchange_and_addEPVii
FNDA:0,_ZN9__gnu_cxxL25__exchange_and_add_singleEPii
FNDA:0,_ZN9__gnu_cxxL27__exchange_and_add_dispatchEPii
FNF:3
FNH:0
DA:47,0
DA:48,0
DA:64,0
DA:66,0
DA:67,0
DA:68,0
DA:77,0
DA:80,0
DA:81,0
DA:83,0
LF:10
LH:0
end_of_record
SF:/opt/apps/gcc/4.7.1/include/c++/4.7.1/ext/new_allocator.h
FN:69,_ZN9__gnu_cxx13new_allocatorIcEC2Ev
FN:71,_ZN9__gnu_cxx13new_allocatorIcEC2ERKS1_
FN:76,_ZN9__gnu_cxx13new_allocatorIcED2Ev
FNDA:0,_ZN9__gnu_cxx13new_allocatorIcEC2Ev
FNDA:0,_ZN9__gnu_cxx13new_allocatorIcEC2ERKS1_
FNDA:0,_ZN9__gnu_cxx13new_allocatorIcED2Ev
FNF:3
FNH:0
DA:69,0
DA:71,0
DA:76,0
LF:3
LH:0
end_of_record
SF:/opt/apps/gcc/4.7.1/include/c++/4.7.1/iostream
DA:75,1
LF:1
LH:1
end_of_record
SF:/opt/apps/gcc/4.7.1/include/c++/4.7.1/x86_64-unknown-linux-gnu/bits/gthr-default.h
FN:259,_ZL18__gthread_active_pv
FNDA:0,_ZL18__gthread_active_pv
FNF:1
FNH:0
DA:259,0
DA:270,0
LF:2
LH:0
end_of_record
SF:/home1/04046/gry88/Tools/Final_Project/src/systemSolve.cpp
FN:19,_Z4SysFPK10gsl_vectorPvPS_
FN:81,_Z9SetFTermsP10gsl_vectorP7FParamsS0_
FN:119,_Z10SetV2TermsP10gsl_vectorS0_P7FParamsS0_
FN:160,_Z10SetEpTermsP10gsl_vectorS0_P7FParamsS0_
FN:198,_Z9SetKTermsP10gsl_vectorS0_P7FParamsS0_
FN:235,_Z9SetUTermsP10gsl_vectorS0_P7FParamsS0_
FN:269,_Z41__static_initialization_and_destruction_0ii
FN:269,_GLOBAL__sub_I__Z4SysFPK10gsl_vectorPvPS_
FNDA:1,_Z4SysFPK10gsl_vectorPvPS_
FNDA:2,_Z9SetFTermsP10gsl_vectorP7FParamsS0_
FNDA:2,_Z10SetV2TermsP10gsl_vectorS0_P7FParamsS0_
FNDA:2,_Z10SetEpTermsP10gsl_vectorS0_P7FParamsS0_
FNDA:2,_Z9SetKTermsP10gsl_vectorS0_P7FParamsS0_
FNDA:2,_Z9SetUTermsP10gsl_vectorS0_P7FParamsS0_
FNDA:1,_GLOBAL__sub_I__Z4SysFPK10gsl_vectorPvPS_
FNDA:1,_Z41__static_initialization_and_destruction_0ii
FNF:8
FNH:8
DA:19,1
DA:22,1
DA:23,1
DA:25,1
DA:29,1
DA:30,1
DA:33,1
DA:34,4
DA:36,3
DA:39,1
DA:40,1
DA:42,1
DA:44,0
DA:45,0
DA:47,1
DA:49,0
DA:50,0
DA:53,1
DA:55,0
DA:56,0
DA:59,1
DA:61,0
DA:62,0
DA:65,1
DA:67,0
DA:68,0
DA:70,1
DA:76,1
DA:78,1
DA:81,2
DA:84,2
DA:88,2
DA:91,6
DA:93,4
DA:94,4
DA:95,4
DA:96,4
DA:97,4
DA:98,4
DA:99,4
DA:100,0
DA:101,4
DA:102,4
DA:106,2
DA:107,2
DA:108,2
DA:109,2
DA:110,2
DA:111,2
DA:112,2
DA:113,2
DA:114,0
DA:115,2
DA:116,2
DA:119,2
DA:122,2
DA:126,2
DA:130,6
DA:132,4
DA:133,4
DA:134,4
DA:135,4
DA:136,4
DA:137,4
DA:138,4
DA:139,4
DA:140,0
DA:141,4
DA:145,2
DA:146,2
DA:147,2
DA:148,2
DA:149,2
DA:150,2
DA:151,2
DA:152,2
DA:153,0
DA:154,2
DA:156,2
DA:160,2
DA:162,2
DA:166,2
DA:170,6
DA:172,4
DA:173,4
DA:174,4
DA:175,4
DA:176,4
DA:177,4
DA:178,4
DA:179,4
DA:180,0
DA:181,4
DA:184,2
DA:185,2
DA:186,2
DA:187,2
DA:188,2
DA:189,2
DA:190,2
DA:191,2
DA:192,0
DA:193,2
DA:194,2
DA:198,2
DA:200,2
DA:204,2
DA:207,6
DA:209,4
DA:210,4
DA:211,4
DA:212,4
DA:213,4
DA:214,4
DA:215,4
DA:216,4
DA:217,0
DA:218,4
DA:221,2
DA:222,2
DA:223,2
DA:224,2
DA:225,2
DA:226,2
DA:227,2
DA:228,2
DA:229,0
DA:230,2
DA:231,2
DA:235,2
DA:237,2
DA:242,2
DA:245,6
DA:247,4
DA:249,4
DA:250,4
DA:251,4
DA:252,4
DA:253,4
DA:254,4
DA:255,0
DA:256,4
DA:259,2
DA:260,2
DA:261,2
DA:262,2
DA:263,2
DA:264,2
DA:265,2
DA:266,0
DA:267,2
DA:268,2
DA:269,3
LF:153
LH:133
end_of_record
TN:
SF:/opt/apps/gcc/4.7.1/include/c++/4.7.1/bits/basic_ios.h
FN:48,_ZSt13__check_facetISt5ctypeIcEERKT_PS3_
FNDA:0,_ZSt13__check_facetISt5ctypeIcEERKT_PS3_
FNF:1
FNH:0
DA:48,0
DA:50,0
DA:51,0
DA:52,0
LF:4
LH:0
end_of_record
SF:/opt/apps/gcc/4.7.1/include/c++/4.7.1/bits/basic_string.h
FN:269,_ZNSs12_Alloc_hiderD2Ev
FN:2362,_ZStplIcSt11char_traitsIcESaIcEESbIT_T0_T1_ERKS6_S8_
FN:2399,_ZStplIcSt11char_traitsIcESaIcEESbIT_T0_T1_ERKS6_PKS3_
FNDA:0,_ZNSs12_Alloc_hiderD2Ev
FNDA:0,_ZStplIcSt11char_traitsIcESaIcEESbIT_T0_T1_ERKS6_S8_
FNDA:0,_ZStplIcSt11char_traitsIcESaIcEESbIT_T0_T1_ERKS6_PKS3_
FNF:3
FNH:0
DA:269,0
DA:2362,0
DA:2365,0
DA:2366,0
DA:2367,0
DA:2399,0
DA:2402,0
DA:2403,0
DA:2404,0
LF:9
LH:0
end_of_record
SF:/opt/apps/gcc/4.7.1/include/c++/4.7.1/bits/basic_string.tcc
FN:694,_ZStplIcSt11char_traitsIcESaIcEESbIT_T0_T1_EPKS3_RKS6_
FNDA:0,_ZStplIcSt11char_traitsIcESaIcEESbIT_T0_T1_EPKS3_RKS6_
FNF:1
FNH:0
DA:694,0
DA:700,0
DA:701,0
DA:702,0
DA:703,0
DA:704,0
DA:705,0
LF:7
LH:0
end_of_record
SF:/opt/apps/gcc/4.7.1/include/c++/4.7.1/bits/char_traits.h
FN:260,_ZNSt11char_traitsIcE6lengthEPKc
FNDA:0,_ZNSt11char_traitsIcE6lengthEPKc
FNF:1
FNH:0
DA:260,0
DA:261,0
LF:2
LH:0
end_of_record
SF:/opt/apps/gcc/4.7.1/include/c++/4.7.1/bits/ios_base.h
FN:159,_ZStorSt12_Ios_IostateS_
FNDA:0,_ZStorSt12_Ios_IostateS_
FNF:1
FNH:0
DA:159,0
DA:160,0
LF:2
LH:0
end_of_record
SF:/opt/apps/gcc/4.7.1/include/c++/4.7.1/bits/locale_facets.h
FN:867,_ZNKSt5ctypeIcE5widenEc
FNDA:0,_ZNKSt5ctypeIcE5widenEc
FNF:1
FNH:0
DA:867,0
DA:869,0
DA:870,0
DA:871,0
DA:872,0
LF:5
LH:0
end_of_record
SF:/opt/apps/gcc/4.7.1/include/c++/4.7.1/ext/atomicity.h
FN:47,_ZN9__gnu_cxxL18__exchange_and_addEPVii
FN:64,_ZN9__gnu_cxxL25__exchange_and_add_singleEPii
FN:77,_ZN9__gnu_cxxL27__exchange_and_add_dispatchEPii
FNDA:0,_ZN9__gnu_cxxL18__exchange_and_addEPVii
FNDA:0,_ZN9__gnu_cxxL25__exchange_and_add_singleEPii
FNDA:0,_ZN9__gnu_cxxL27__exchange_and_add_dispatchEPii
FNF:3
FNH:0
DA:47,0
DA:48,0
DA:64,0
DA:66,0
DA:67,0
DA:68,0
DA:77,0
DA:80,0
DA:81,0
DA:83,0
LF:10
LH:0
end_of_record
SF:/opt/apps/gcc/4.7.1/include/c++/4.7.1/ext/new_allocator.h
FN:69,_ZN9__gnu_cxx13new_allocatorIcEC2Ev
FN:71,_ZN9__gnu_cxx13new_allocatorIcEC2ERKS1_
FN:76,_ZN9__gnu_cxx13new_allocatorIcED2Ev
FNDA:0,_ZN9__gnu_cxx13new_allocatorIcEC2Ev
FNDA:0,_ZN9__gnu_cxx13new_allocatorIcEC2ERKS1_
FNDA:0,_ZN9__gnu_cxx13new_allocatorIcED2Ev
FNF:3
FNH:0
DA:69,0
DA:71,0
DA:76,0
LF:3
LH:0
end_of_record
SF:/opt/apps/gcc/4.7.1/include/c++/4.7.1/iostream
DA:75,1
LF:1
LH:1
end_of_record
SF:/opt/apps/gcc/4.7.1/include/c++/4.7.1/x86_64-unknown-linux-gnu/bits/gthr-default.h
FN:259,_ZL18__gthread_active_pv
FNDA:0,_ZL18__gthread_active_pv
FNF:1
FNH:0
DA:259,0
DA:270,0
LF:2
LH:0
end_of_record
SF:/home1/04046/gry88/Tools/Final_Project/src/computeTerms.cpp
FN:12,_Z8ComputeTP10gsl_vectorP9constantsi
FN:41,_Z8ComputeLP10gsl_vectorP9constantsi
FN:64,_Z15ComputeEddyViscP10gsl_vectorP9constantsi
FN:77,_Z8ComputePP10gsl_vectorP9constantsdi
FN:95,_Z10ComputeEp0P10gsl_vectorP9constantsd
FN:105,_Z9Computef0P10gsl_vectorP9constantsd
FN:113,_Z41__static_initialization_and_destruction_0ii
FN:113,_GLOBAL__sub_I__Z8ComputeTP10gsl_vectorP9constantsi
FNDA:43,_Z8ComputeTP10gsl_vectorP9constantsi
FNDA:8,_Z8ComputeLP10gsl_vectorP9constantsi
FNDA:29,_Z15ComputeEddyViscP10gsl_vectorP9constantsi
FNDA:12,_Z8ComputePP10gsl_vectorP9constantsdi
FNDA:16,_Z10ComputeEp0P10gsl_vectorP9constantsd
FNDA:6,_Z9Computef0P10gsl_vectorP9constantsd
FNDA:1,_GLOBAL__sub_I__Z8ComputeTP10gsl_vectorP9constantsi
FNDA:1,_Z41__static_initialization_and_destruction_0ii
FNF:8
FNH:8
DA:12,43
DA:15,43
DA:17,43
DA:18,43
DA:19,43
DA:20,43
DA:22,0
DA:23,0
DA:26,43
DA:27,43
DA:28,43
DA:30,0
DA:31,0
DA:34,43
DA:35,17
DA:37,26
DA:41,8
DA:44,8
DA:46,8
DA:47,8
DA:48,8
DA:49,8
DA:50,0
DA:52,8
DA:53,8
DA:54,8
DA:55,0
DA:57,8
DA:58,5
DA:60,3
DA:64,29
DA:67,29
DA:69,29
DA:70,29
DA:71,29
DA:72,29
DA:73,0
DA:74,29
DA:77,12
DA:81,12
DA:83,12
DA:85,0
DA:86,0
DA:88,12
DA:89,12
DA:90,12
DA:91,0
DA:92,12
DA:95,16
DA:97,16
DA:98,16
DA:99,16
DA:100,16
DA:101,0
DA:102,16
DA:105,6
DA:107,6
DA:108,6
DA:109,6
DA:110,6
DA:111,0
DA:112,6
DA:113,3
LF:63
LH:51
end_of_record
TN:
SF:/opt/apps/gcc/4.7.1/include/c++/4.7.1/bits/allocator.h
FN:124,_ZSteqIcEbRKSaIT_ES3_
FNDA:0,_ZSteqIcEbRKSaIT_ES3_
FNF:1
FNH:0
DA:124,0
DA:125,0
LF:2
LH:0
end_of_record
SF:/opt/apps/gcc/4.7.1/include/c++/4.7.1/bits/basic_ios.h
FN:48,_ZSt13__check_facetISt5ctypeIcEERKT_PS3_
FNDA:0,_ZSt13__check_facetISt5ctypeIcEERKT_PS3_
FNF:1
FNH:0
DA:48,0
DA:50,0
DA:51,0
DA:52,0
LF:4
LH:0
end_of_record
SF:/opt/apps/gcc/4.7.1/include/c++/4.7.1/bits/basic_string.h
FN:269,_ZNSs12_Alloc_hiderD2Ev
FN:1718,_ZNSs16_S_construct_auxIPcEES0_T_S1_RKSaIcESt12__false_type
FN:1740,_ZNSs12_S_constructIPcEES0_T_S1_RKSaIcE
FN:2362,_ZStplIcSt11char_traitsIcESaIcEESbIT_T0_T1_ERKS6_S8_
FN:2399,_ZStplIcSt11char_traitsIcESaIcEESbIT_T0_T1_ERKS6_PKS3_
FNDA:0,_ZNSs12_Alloc_hiderD2Ev
FNDA:0,_ZNSs16_S_construct_auxIPcEES0_T_S1_RKSaIcESt12__false_type
FNDA:0,_ZNSs12_S_constructIPcEES0_T_S1_RKSaIcE
FNDA:261,_ZStplIcSt11char_traitsIcESaIcEESbIT_T0_T1_ERKS6_S8_
FNDA:453,_ZStplIcSt11char_traitsIcESaIcEESbIT_T0_T1_ERKS6_PKS3_
FNF:5
FNH:2
DA:269,0
DA:1718,0
DA:1722,0
DA:1740,0
DA:1743,0
DA:2362,261
DA:2365,261
DA:2366,261
DA:2367,261
DA:2399,453
DA:2402,453
DA:2403,453
DA:2404,453
LF:13
LH:8
end_of_record
SF:/opt/apps/gcc/4.7.1/include/c++/4.7.1/bits/basic_string.tcc
FN:125,_ZNSs12_S_constructIPcEES0_T_S1_RKSaIcESt20forward_iterator_tag
FN:229,_ZNSsC2IPcEET_S1_RKSaIcE
FN:694,_ZStplIcSt11char_traitsIcESaIcEESbIT_T0_T1_EPKS3_RKS6_
FNDA:0,_ZNSs12_S_constructIPcEES0_T_S1_RKSaIcESt20forward_iterator_tag
FNDA:0,_ZNSsC2IPcEET_S1_RKSaIcE
FNDA:231,_ZStplIcSt11char_traitsIcESaIcEESbIT_T0_T1_EPKS3_RKS6_
FNF:3
FNH:1
DA:125,0
DA:130,0
DA:131,0
DA:134,0
DA:135,0
DA:138,0
DA:140,0
DA:142,0
DA:143,0
DA:145,0
DA:146,0
DA:148,0
DA:149,0
DA:229,0
DA:231,0
DA:232,0
DA:694,231
DA:700,231
DA:701,231
DA:702,231
DA:703,231
DA:704,231
DA:705,231
LF:23
LH:7
end_of_record
SF:/opt/apps/gcc/4.7.1/include/c++/4.7.1/bits/char_traits.h
FN:244,_ZNSt11char_traitsIcE6assignERcRKc
FN:260,_ZNSt11char_traitsIcE6lengthEPKc
FN:272,_ZNSt11char_traitsIcE4copyEPcPKcm
FNDA:0,_ZNSt11char_traitsIcE6assignERcRKc
FNDA:231,_ZNSt11char_traitsIcE6lengthEPKc
FNDA:0,_ZNSt11char_traitsIcE4copyEPcPKcm
FNF:3
FNH:1
DA:244,0
DA:245,0
DA:260,231
DA:261,231
DA:272,0
DA:273,0
LF:6
LH:2
end_of_record
SF:/opt/apps/gcc/4.7.1/include/c++/4.7.1/bits/ios_base.h
FN:121,_ZStorSt13_Ios_OpenmodeS_
FN:155,_ZStanSt12_Ios_IostateS_
FN:159,_ZStorSt12_Ios_IostateS_
FN:632,_ZNSt8ios_base9precisionEl
FNDA:0,_ZStorSt13_Ios_OpenmodeS_
FNDA:0,_ZStanSt12_Ios_IostateS_
FNDA:0,_ZStorSt12_Ios_IostateS_
FNDA:0,_ZNSt8ios_base9precisionEl
FNF:4
FNH:0
DA:121,0
DA:122,0
DA:155,0
DA:156,0
DA:159,0
DA:160,0
DA:632,0
DA:634,0
DA:635,0
DA:636,0
LF:10
LH:0
end_of_record
SF:/opt/apps/gcc/4.7.1/include/c++/4.7.1/bits/locale_facets.h
FN:867,_ZNKSt5ctypeIcE5widenEc
FNDA:0,_ZNKSt5ctypeIcE5widenEc
FNF:1
FNH:0
DA:867,0
DA:869,0
DA:870,0
DA:871,0
DA:872,0
LF:5
LH:0
end_of_record
SF:/opt/apps/gcc/4.7.1/include/c++/4.7.1/bits/stl_iterator_base_funcs.h
FN:90,_ZSt10__distanceIPcENSt15iterator_traitsIT_E15difference_typeES2_S2_St26random_access_iterator_tag
FN:114,_ZSt8distanceIPcENSt15iterator_traitsIT_E15difference_typeES2_S2_
FNDA:0,_ZSt10__distanceIPcENSt15iterator_traitsIT_E15difference_typeES2_S2_St26random_access_iterator_tag
FNDA:0,_ZSt8distanceIPcENSt15iterator_traitsIT_E15difference_typeES2_S2_
FNF:2
FNH:0
DA:90,0
DA:96,0
DA:114,0
DA:118,0
LF:4
LH:0
end_of_record
SF:/opt/apps/gcc/4.7.1/include/c++/4.7.1/bits/stl_iterator_base_types.h
FN:202,_ZSt19__iterator_categoryIPcENSt15iterator_traitsIT_E17iterator_categoryERKS2_
FNDA:0,_ZSt19__iterator_categoryIPcENSt15iterator_traitsIT_E17iterator_categoryERKS2_
FNF:1
FNH:0
DA:202,0
DA:203,0
LF:2
LH:0
end_of_record
SF:/opt/apps/gcc/4.7.1/include/c++/4.7.1/ext/atomicity.h
FN:47,_ZN9__gnu_cxxL18__exchange_and_addEPVii
FN:64,_ZN9__gnu_cxxL25__exchange_and_add_singleEPii
FN:77,_ZN9__gnu_cxxL27__exchange_and_add_dispatchEPii
FNDA:0,_ZN9__gnu_cxxL18__exchange_and_addEPVii
FNDA:0,_ZN9__gnu_cxxL25__exchange_and_add_singleEPii
FNDA:0,_ZN9__gnu_cxxL27__exchange_and_add_dispatchEPii
FNF:3
FNH:0
DA:47,0
DA:48,0
DA:64,0
DA:66,0
DA:67,0
DA:68,0
DA:77,0
DA:80,0
DA:81,0
DA:83,0
LF:10
LH:0
end_of_record
SF:/opt/apps/gcc/4.7.1/include/c++/4.7.1/ext/new_allocator.h
FN:69,_ZN9__gnu_cxx13new_allocatorIcEC2Ev
FN:71,_ZN9__gnu_cxx13new_allocatorIcEC2ERKS1_
FN:76,_ZN9__gnu_cxx13new_allocatorIcED2Ev
FNDA:0,_ZN9__gnu_cxx13new_allocatorIcEC2Ev
FNDA:0,_ZN9__gnu_cxx13new_allocatorIcEC2ERKS1_
FNDA:0,_ZN9__gnu_cxx13new_allocatorIcED2Ev
FNF:3
FNH:0
DA:69,0
DA:71,0
DA:76,0
LF:3
LH:0
end_of_record
SF:/opt/apps/gcc/4.7.1/include/c++/4.7.1/ext/type_traits.h
FN:150,_ZN9__gnu_cxx17__is_null_pointerIcEEbPT_
FNDA:0,_ZN9__gnu_cxx17__is_null_pointerIcEEbPT_
FNF:1
FNH:0
DA:150,0
DA:151,0
LF:2
LH:0
end_of_record
SF:/opt/apps/gcc/4.7.1/include/c++/4.7.1/iomanip
FN:194,_ZSt12setprecisioni
FNDA:1,_ZSt12setprecisioni
FNF:1
FNH:1
DA:194,1
DA:195,1
LF:2
LH:2
end_of_record
SF:/opt/apps/gcc/4.7.1/include/c++/4.7.1/iostream
DA:75,1
LF:1
LH:1
end_of_record
SF:/opt/apps/gcc/4.7.1/include/c++/4.7.1/sstream
FN:60,_ZNSt15basic_stringbufIcSt11char_traitsIcESaIcEED0Ev
FN:60,_ZNSt15basic_stringbufIcSt11char_traitsIcESaIcEED2Ev
FNDA:0,_ZNSt15basic_stringbufIcSt11char_traitsIcESaIcEED0Ev
FNDA:0,_ZNSt15basic_stringbufIcSt11char_traitsIcESaIcEED2Ev
FNF:2
FNH:0
DA:60,0
LF:1
LH:0
end_of_record
SF:/opt/apps/gcc/4.7.1/include/c++/4.7.1/x86_64-unknown-linux-gnu/bits/gthr-default.h
FN:259,_ZL18__gthread_active_pv
FNDA:0,_ZL18__gthread_active_pv
FNF:1
FNH:0
DA:259,0
DA:270,0
LF:2
LH:0
end_of_record
SF:/home1/04046/gry88/Tools/Final_Project/src/setup.cpp
FN:25,_Z16Grvy_Input_ParseP9constantsRSsS1_Rd
FN:91,_Z3logiiSs
FN:98,_Z6num2std
FN:107,_Z9LinInterpP10gsl_vectordddddi
FN:119,_Z7SolveICP10gsl_vectordSs
FN:174,_Z8Solve4f0P10gsl_vectorP9constantsd
FN:253,_Z11SaveResultsP10gsl_vectorSsdP9constants
FN:272,_Z41__static_initialization_and_destruction_0ii
FN:272,_GLOBAL__sub_I_verbose
FNDA:1,_Z16Grvy_Input_ParseP9constantsRSsS1_Rd
FNDA:356,_Z3logiiSs
FNDA:451,_Z6num2std
FNDA:16,_Z9LinInterpP10gsl_vectordddddi
FNDA:1,_Z7SolveICP10gsl_vectordSs
FNDA:0,_Z8Solve4f0P10gsl_vectorP9constantsd
FNDA:1,_Z11SaveResultsP10gsl_vectorSsdP9constants
FNDA:1,_GLOBAL__sub_I_verbose
FNDA:1,_Z41__static_initialization_and_destruction_0ii
FNF:9
FNH:8
DA:25,1
DA:29,1
DA:31,1
DA:32,0
DA:36,1
DA:37,0
DA:38,1
DA:39,0
DA:40,1
DA:42,1
DA:43,0
DA:44,1
DA:46,1
DA:47,0
DA:48,1
DA:50,1
DA:51,0
DA:52,1
DA:54,1
DA:55,0
DA:56,1
DA:58,1
DA:59,0
DA:60,1
DA:62,1
DA:63,0
DA:64,1
DA:66,1
DA:67,0
DA:68,1
DA:70,1
DA:71,0
DA:72,1
DA:74,1
DA:75,0
DA:76,1
DA:78,1
DA:79,0
DA:80,1
DA:82,1
DA:83,0
DA:84,1
DA:86,1
DA:88,1
DA:91,356
DA:94,356
DA:95,0
DA:96,356
DA:98,451
DA:100,451
DA:101,451
DA:102,451
DA:103,451
DA:104,451
DA:107,16
DA:109,16
DA:110,16
DA:112,0
DA:113,0
DA:115,16
DA:116,16
DA:119,1
DA:121,1
DA:122,1
DA:130,1
DA:131,0
DA:133,1
DA:134,0
DA:135,5
DA:137,4
DA:138,4
DA:139,4
DA:141,9
DA:144,1
DA:145,1
DA:146,1
DA:147,1
DA:148,1
DA:149,1
DA:150,0
DA:154,4
DA:155,4
DA:156,4
DA:157,4
DA:158,4
DA:159,4
DA:160,0
DA:161,4
DA:162,0
DA:163,4
DA:164,0
DA:165,4
DA:166,0
DA:169,1
DA:171,1
DA:174,0
DA:179,0
DA:180,0
DA:181,0
DA:182,0
DA:195,0
DA:196,0
DA:198,0
DA:200,0
DA:202,0
DA:203,0
DA:204,0
DA:205,0
DA:207,0
DA:208,0
DA:210,0
DA:212,0
DA:213,0
DA:216,0
DA:220,0
DA:221,0
DA:222,0
DA:223,0
DA:224,0
DA:226,0
DA:227,0
DA:229,0
DA:230,0
DA:233,0
DA:236,0
DA:238,0
DA:239,0
DA:240,0
DA:243,0
DA:244,0
DA:246,0
DA:247,0
DA:248,0
DA:250,0
DA:253,1
DA:255,1
DA:256,1
DA:258,1
DA:260,4
DA:262,3
DA:263,3
DA:264,3
DA:265,3
DA:266,3
DA:267,3
DA:270,1
DA:272,4
LF:147
LH:84
end_of_record
TN:
SF:/opt/apps/gcc/4.7.1/include/c++/4.7.1/bits/basic_ios.h
FN:48,_ZSt13__check_facetISt5ctypeIcEERKT_PS3_
FNDA:0,_ZSt13__check_facetISt5ctypeIcEERKT_PS3_
FNF:1
FNH:0
DA:48,0
DA:50,0
DA:51,0
DA:52,0
LF:4
LH:0
end_of_record
SF:/opt/apps/gcc/4.7.1/include/c++/4.7.1/bits/char_traits.h
FN:260,_ZNSt11char_traitsIcE6lengthEPKc
FNDA:0,_ZNSt11char_traitsIcE6lengthEPKc
FNF:1
FNH:0
DA:260,0
DA:261,0
LF:2
LH:0
end_of_record
SF:/opt/apps/gcc/4.7.1/include/c++/4.7.1/bits/ios_base.h
FN:159,_ZStorSt12_Ios_IostateS_
FNDA:0,_ZStorSt12_Ios_IostateS_
FNF:1
FNH:0
DA:159,0
DA:160,0
LF:2
LH:0
end_of_record
SF:/opt/apps/gcc/4.7.1/include/c++/4.7.1/bits/locale_facets.h
FN:867,_ZNKSt5ctypeIcE5widenEc
FNDA:0,_ZNKSt5ctypeIcE5widenEc
FNF:1
FNH:0
DA:867,0
DA:869,0
DA:870,0
DA:871,0
DA:872,0
LF:5
LH:0
end_of_record
SF:/opt/apps/gcc/4.7.1/include/c++/4.7.1/iostream
DA:75,1
LF:1
LH:1
end_of_record
SF:/home1/04046/gry88/Tools/Final_Project/test/unit/test_computeTerms.cpp
FN:10,_Z9SetuptestP10gsl_vectorP9constants
FN:37,_Z13ComputeT_testv
FN:62,_Z13ComputeL_testv
FN:88,_Z20ComputeEddyVisc_testv
FN:114,_Z13ComputeP_testv
FN:141,_Z15ComputeEp0_testv
FN:159,_Z14Computef0_testv
FN:175,_Z41__static_initialization_and_destruction_0ii
FN:175,_GLOBAL__sub_I__Z9SetuptestP10gsl_vectorP9constants
FNDA:7,_Z9SetuptestP10gsl_vectorP9constants
FNDA:1,_Z13ComputeT_testv
FNDA:1,_Z13ComputeL_testv
FNDA:1,_Z20ComputeEddyVisc_testv
FNDA:1,_Z13ComputeP_testv
FNDA:1,_Z15ComputeEp0_testv
FNDA:1,_Z14Computef0_testv
FNDA:1,_GLOBAL__sub_I__Z9SetuptestP10gsl_vectorP9constants
FNDA:1,_Z41__static_initialization_and_destruction_0ii
FNF:9
FNH:9
DA:10,7
DA:12,7
DA:13,7
DA:14,7
DA:15,7
DA:16,7
DA:17,7
DA:18,7
DA:19,7
DA:20,7
DA:22,7
DA:23,7
DA:24,7
DA:25,7
DA:26,7
DA:27,7
DA:28,7
DA:29,7
DA:30,7
DA:31,7
DA:33,7
DA:37,1
DA:39,1
DA:41,1
DA:42,1
DA:43,1
DA:44,1
DA:45,1
DA:46,1
DA:48,3
DA:50,2
DA:52,0
DA:53,0
DA:56,1
DA:57,1
DA:58,1
DA:59,1
DA:62,1
DA:64,1
DA:66,1
DA:67,1
DA:68,1
DA:70,1
DA:71,1
DA:72,1
DA:74,3
DA:76,2
DA:78,0
DA:79,0
DA:82,1
DA:83,1
DA:84,1
DA:85,1
DA:88,1
DA:90,1
DA:92,1
DA:93,1
DA:94,1
DA:96,1
DA:97,1
DA:98,1
DA:100,3
DA:102,2
DA:104,0
DA:105,0
DA:108,1
DA:109,1
DA:110,1
DA:111,1
DA:114,1
DA:116,1
DA:118,1
DA:119,1
DA:120,1
DA:123,1
DA:124,1
DA:125,1
DA:127,1
DA:129,0
DA:131,0
DA:132,0
DA:135,1
DA:136,1
DA:137,1
DA:138,1
DA:141,1
DA:143,1
DA:145,1
DA:146,1
DA:147,1
DA:148,1
DA:150,1
DA:152,0
DA:153,0
DA:155,1
DA:156,1
DA:159,1
DA:161,1
DA:163,1
DA:164,1
DA:165,1
DA:166,1
DA:168,1
DA:170,0
DA:171,0
DA:173,1
DA:174,1
DA:175,3
LF:108
LH:95
end_of_record
TN:
SF:/opt/apps/gcc/4.7.1/include/c++/4.7.1/bits/basic_ios.h
FN:48,_ZSt13__check_facetISt5ctypeIcEERKT_PS3_
FNDA:0,_ZSt13__check_facetISt5ctypeIcEERKT_PS3_
FNF:1
FNH:0
DA:48,0
DA:50,0
DA:51,0
DA:52,0
LF:4
LH:0
end_of_record
SF:/opt/apps/gcc/4.7.1/include/c++/4.7.1/bits/char_traits.h
FN:260,_ZNSt11char_traitsIcE6lengthEPKc
FNDA:0,_ZNSt11char_traitsIcE6lengthEPKc
FNF:1
FNH:0
DA:260,0
DA:261,0
LF:2
LH:0
end_of_record
SF:/opt/apps/gcc/4.7.1/include/c++/4.7.1/bits/ios_base.h
FN:159,_ZStorSt12_Ios_IostateS_
FNDA:0,_ZStorSt12_Ios_IostateS_
FNF:1
FNH:0
DA:159,0
DA:160,0
LF:2
LH:0
end_of_record
SF:/opt/apps/gcc/4.7.1/include/c++/4.7.1/bits/locale_facets.h
FN:867,_ZNKSt5ctypeIcE5widenEc
FNDA:0,_ZNKSt5ctypeIcE5widenEc
FNF:1
FNH:0
DA:867,0
DA:869,0
DA:870,0
DA:871,0
DA:872,0
LF:5
LH:0
end_of_record
SF:/opt/apps/gcc/4.7.1/include/c++/4.7.1/iostream
DA:75,1
LF:1
LH:1
end_of_record
SF:/home1/04046/gry88/Tools/Final_Project/test/unit/test.cpp
FN:9,main
FN:33,_Z41__static_initialization_and_destruction_0ii
FN:33,_GLOBAL__sub_I_main
FNDA:1,main
FNDA:1,_GLOBAL__sub_I_main
FNDA:1,_Z41__static_initialization_and_destruction_0ii
FNF:3
FNH:3
DA:9,1
DA:11,1
DA:12,1
DA:13,1
DA:15,1
DA:16,1
DA:17,1
DA:19,1
DA:20,1
DA:21,1
DA:22,1
DA:23,1
DA:24,1
DA:26,1
DA:27,1
DA:28,1
DA:29,1
DA:30,1
DA:31,1
DA:33,4
LF:20
LH:20
end_of_record
TN:
SF:/opt/apps/gcc/4.7.1/include/c++/4.7.1/bits/basic_ios.h
FN:48,_ZSt13__check_facetISt5ctypeIcEERKT_PS3_
FNDA:0,_ZSt13__check_facetISt5ctypeIcEERKT_PS3_
FNF:1
FNH:0
DA:48,0
DA:50,0
DA:51,0
DA:52,0
LF:4
LH:0
end_of_record
SF:/opt/apps/gcc/4.7.1/include/c++/4.7.1/bits/char_traits.h
FN:260,_ZNSt11char_traitsIcE6lengthEPKc
FNDA:0,_ZNSt11char_traitsIcE6lengthEPKc
FNF:1
FNH:0
DA:260,0
DA:261,0
LF:2
LH:0
end_of_record
SF:/opt/apps/gcc/4.7.1/include/c++/4.7.1/bits/ios_base.h
FN:159,_ZStorSt12_Ios_IostateS_
FNDA:0,_ZStorSt12_Ios_IostateS_
FNF:1
FNH:0
DA:159,0
DA:160,0
LF:2
LH:0
end_of_record
SF:/opt/apps/gcc/4.7.1/include/c++/4.7.1/bits/locale_facets.h
FN:867,_ZNKSt5ctypeIcE5widenEc
FNDA:0,_ZNKSt5ctypeIcE5widenEc
FNF:1
FNH:0
DA:867,0
DA:869,0
DA:870,0
DA:871,0
DA:872,0
LF:5
LH:0
end_of_record
SF:/opt/apps/gcc/4.7.1/include/c++/4.7.1/iostream
DA:75,1
LF:1
LH:1
end_of_record
SF:/home1/04046/gry88/Tools/Final_Project/test/unit/test_systemSolve.cpp
FN:10,_Z12Setuptest_SSP10gsl_vectorP7FParams
FN:43,_Z14SetUTerms_testv
FN:81,_Z14SetkTerms_testv
FN:118,_Z15SetEpTerms_testv
FN:155,_Z15Setv2Terms_testv
FN:192,_Z14SetFTerms_testv
FN:222,_Z9SysF_testv
FN:271,_Z41__static_initialization_and_destruction_0ii
FN:271,_GLOBAL__sub_I__Z12Setuptest_SSP10gsl_vectorP7FParams
FNDA:6,_Z12Setuptest_SSP10gsl_vectorP7FParams
FNDA:1,_Z14SetUTerms_testv
FNDA:1,_Z14SetkTerms_testv
FNDA:1,_Z15SetEpTerms_testv
FNDA:1,_Z15Setv2Terms_testv
FNDA:1,_Z14SetFTerms_testv
FNDA:1,_Z9SysF_testv
FNDA:1,_GLOBAL__sub_I__Z12Setuptest_SSP10gsl_vectorP7FParams
FNDA:1,_Z41__static_initialization_and_destruction_0ii
FNF:9
FNH:9
DA:10,6
DA:12,6
DA:13,6
DA:14,6
DA:15,6
DA:16,6
DA:17,6
DA:18,6
DA:19,6
DA:20,6
DA:22,6
DA:23,6
DA:24,6
DA:25,6
DA:26,6
DA:27,6
DA:28,6
DA:29,6
DA:30,6
DA:31,6
DA:32,6
DA:33,6
DA:34,6
DA:35,6
DA:36,6
DA:38,6
DA:40,6
DA:43,1
DA:45,1
DA:46,1
DA:47,1
DA:48,1
DA:49,1
DA:51,1
DA:52,1
DA:53,1
DA:54,1
DA:55,1
DA:57,4
DA:59,3
DA:63,1
DA:64,1
DA:65,1
DA:66,1
DA:68,4
DA:70,3
DA:72,0
DA:73,0
DA:76,1
DA:78,1
DA:81,1
DA:83,1
DA:84,1
DA:85,1
DA:86,1
DA:87,1
DA:89,1
DA:90,1
DA:91,1
DA:92,1
DA:93,1
DA:95,4
DA:97,3
DA:101,1
DA:102,1
DA:103,1
DA:104,1
DA:106,4
DA:108,3
DA:110,0
DA:111,0
DA:114,1
DA:115,1
DA:118,1
DA:120,1
DA:121,1
DA:122,1
DA:123,1
DA:124,1
DA:126,1
DA:127,1
DA:128,1
DA:129,1
DA:130,1
DA:132,4
DA:134,3
DA:138,1
DA:139,1
DA:140,1
DA:141,1
DA:143,4
DA:145,3
DA:147,0
DA:148,0
DA:151,1
DA:152,1
DA:155,1
DA:157,1
DA:158,1
DA:159,1
DA:160,1
DA:161,1
DA:163,1
DA:164,1
DA:165,1
DA:166,1
DA:167,1
DA:169,4
DA:171,3
DA:175,1
DA:176,1
DA:177,1
DA:178,1
DA:180,4
DA:182,3
DA:184,0
DA:185,0
DA:188,1
DA:189,1
DA:192,1
DA:194,1
DA:195,1
DA:196,1
DA:197,1
DA:199,1
DA:200,1
DA:201,1
DA:202,1
DA:203,1
DA:205,1
DA:206,1
DA:207,1
DA:208,1
DA:210,4
DA:212,3
DA:214,0
DA:215,0
DA:218,1
DA:219,1
DA:222,1
DA:224,1
DA:225,1
DA:226,1
DA:227,1
DA:229,1
DA:230,1
DA:231,1
DA:232,1
DA:233,1
DA:235,1
DA:238,1
DA:239,1
DA:240,1
DA:243,1
DA:244,1
DA:245,1
DA:248,1
DA:249,1
DA:250,1
DA:252,1
DA:253,1
DA:254,1
DA:256,1
DA:257,1
DA:258,1
DA:261,16
DA:263,15
DA:265,0
DA:266,0
DA:269,1
DA:270,1
DA:271,3
LF:172
LH:160
end_of_record
TN:
SF:/opt/apps/gcc/4.7.1/include/c++/4.7.1/iostream
DA:75,1
LF:1
LH:1
end_of_record
SF:/home1/04046/gry88/Tools/Final_Project/src/finiteDiff.cpp
FN:13,_Z5Diff2P10gsl_vectorddi
FN:25,_Z5Diff1P10gsl_vectorddi
FN:37,_Z9BdryDiff2P10gsl_vectordi
FN:44,_Z7Diff1vTP10gsl_vectordi
FN:49,_Z41__static_initialization_and_destruction_0ii
FN:49,_GLOBAL__sub_I__Z5Diff2P10gsl_vectorddi
FNDA:20,_Z5Diff2P10gsl_vectorddi
FNDA:28,_Z5Diff1P10gsl_vectorddi
FNDA:10,_Z9BdryDiff2P10gsl_vectordi
FNDA:16,_Z7Diff1vTP10gsl_vectordi
FNDA:1,_GLOBAL__sub_I__Z5Diff2P10gsl_vectorddi
FNDA:1,_Z41__static_initialization_and_destruction_0ii
FNF:6
FNH:6
DA:13,20
DA:18,20
DA:19,10
DA:21,10
DA:22,20
DA:25,28
DA:30,28
DA:31,20
DA:33,8
DA:34,28
DA:37,10
DA:40,10
DA:41,10
DA:44,16
DA:47,16
DA:48,16
DA:49,3
LF:17
LH:17
end_of_record
